target datalayout = "e-m:e-p270:32:32-p271:32:32-p272:64:64-i64:64-i128:128-f80:128-n8:16:32:64-S128"
target triple = "x86_64-pc-linux-gnu"

%"struct.icu_77::ChineseCalendar::Setting" = type { i32, ptr, ptr, ptr }

; Function Attrs: inlinehint mustprogress nounwind uwtable
define internal noundef signext i8 @_ZL9U_FAILURE10UErrorCode(i32 noundef %0) #4 {
  %2 = alloca i32, align 4
  store i32 %0, ptr %2, align 4, !tbaa !30
  %3 = load i32, ptr %2, align 4, !tbaa !30
  %4 = icmp sgt i32 %3, 0
  %5 = zext i1 %4 to i8
  ret i8 %5
}

; Function Attrs: mustprogress uwtable
define noundef i32 @_ZNK6icu_7715ChineseCalendar28handleGetMonthLengthWithLeapEiibR10UErrorCode(ptr noundef nonnull align 8 dereferenceable(193) %0, i32 noundef %1, i32 noundef %2, i1 noundef zeroext %3, ptr noundef nonnull align 4 dereferenceable(4) %4) #0 align 2 {
  %6 = alloca i32, align 4
  %7 = alloca ptr, align 8
  %8 = alloca i32, align 4
  %9 = alloca i32, align 4
  %10 = alloca i8, align 1
  %11 = alloca ptr, align 8
  %12 = alloca %"struct.icu_77::ChineseCalendar::Setting", align 8
  %13 = alloca i32, align 4
  %14 = alloca i32, align 4
  %15 = alloca i32, align 4
  store ptr %0, ptr %7, align 8, !tbaa !3
  store i32 %1, ptr %8, align 4, !tbaa !29
  store i32 %2, ptr %9, align 4, !tbaa !29
  %16 = zext i1 %3 to i8
  store i8 %16, ptr %10, align 1, !tbaa !39
  store ptr %4, ptr %11, align 8, !tbaa !10
  %17 = load ptr, ptr %7, align 8
  call void @llvm.lifetime.start.p0(i64 32, ptr %12) #13
  %18 = load ptr, ptr %11, align 8, !tbaa !10
  %19 = load ptr, ptr %17, align 8, !tbaa !11
  %20 = getelementptr inbounds ptr, ptr %19, i64 57
  %21 = load ptr, ptr %20, align 8
  call void %21(ptr dead_on_unwind writable sret(%"struct.icu_77::ChineseCalendar::Setting") align 8 %12, ptr noundef nonnull align 8 dereferenceable(193) %17, ptr noundef nonnull align 4 dereferenceable(4) %18)
  %22 = load ptr, ptr %11, align 8, !tbaa !10
  %23 = load i32, ptr %22, align 4, !tbaa !30
  %24 = call noundef signext i8 @_ZL9U_FAILURE10UErrorCode(i32 noundef %23)
  %25 = icmp ne i8 %24, 0
  br i1 %25, label %26, label %27

26:                                               ; preds = %5
  store i32 0, ptr %6, align 4
  store i32 1, ptr %13, align 4
  br label %55

27:                                               ; preds = %5
  call void @llvm.lifetime.start.p0(i64 4, ptr %14) #13
  %28 = load i32, ptr %8, align 4, !tbaa !29
  %29 = load i32, ptr %9, align 4, !tbaa !29
  %30 = load i8, ptr %10, align 1, !tbaa !39, !range !40, !noundef !41
  %31 = trunc i8 %30 to i1
  %32 = load ptr, ptr %11, align 8, !tbaa !10
  %33 = call noundef i64 @_ZNK6icu_7715ChineseCalendar31handleComputeMonthStartWithLeapEiibR10UErrorCode(ptr noundef nonnull align 8 dereferenceable(193) %17, i32 noundef %28, i32 noundef %29, i1 noundef zeroext %31, ptr noundef nonnull align 4 dereferenceable(4) %32)
  %34 = trunc i64 %33 to i32
  store i32 %34, ptr %14, align 4, !tbaa !29
  %35 = load ptr, ptr %11, align 8, !tbaa !10
  %36 = load i32, ptr %35, align 4, !tbaa !30
  %37 = call noundef signext i8 @_ZL9U_FAILURE10UErrorCode(i32 noundef %36)
  %38 = icmp ne i8 %37, 0
  br i1 %38, label %39, label %40

39:                                               ; preds = %27
  store i32 0, ptr %6, align 4
  store i32 1, ptr %13, align 4
  br label %54

40:                                               ; preds = %27
  %41 = load i32, ptr %14, align 4, !tbaa !29
  %42 = sub nsw i32 %41, 2440588
  %43 = add nsw i32 %42, 1
  store i32 %43, ptr %14, align 4, !tbaa !29
  call void @llvm.lifetime.start.p0(i64 4, ptr %15) #13
  %44 = getelementptr inbounds nuw %"struct.icu_77::ChineseCalendar::Setting", ptr %12, i32 0, i32 1
  %45 = load ptr, ptr %44, align 8, !tbaa !42
  %46 = load i32, ptr %14, align 4, !tbaa !29
  %47 = add nsw i32 %46, 25
  %48 = sitofp i32 %47 to double
  %49 = load ptr, ptr %11, align 8, !tbaa !10
  %50 = call noundef i32 @_ZN6icu_7712_GLOBAL__N_111newMoonNearEPKNS_8TimeZoneEdaR10UErrorCode(ptr noundef %45, double noundef %48, i8 noundef signext 1, ptr noundef nonnull align 4 dereferenceable(4) %49)
  store i32 %50, ptr %15, align 4, !tbaa !29
  %51 = load i32, ptr %15, align 4, !tbaa !29
  %52 = load i32, ptr %14, align 4, !tbaa !29
  %53 = sub nsw i32 %51, %52
  store i32 %53, ptr %6, align 4
  store i32 1, ptr %13, align 4
  call void @llvm.lifetime.end.p0(i64 4, ptr %15) #13
  br label %54

54:                                               ; preds = %40, %39
  call void @llvm.lifetime.end.p0(i64 4, ptr %14) #13
  br label %55

55:                                               ; preds = %54, %26
  call void @llvm.lifetime.end.p0(i64 32, ptr %12) #13
  %56 = load i32, ptr %6, align 4
  ret i32 %56
}