; Function Attrs: mustprogress uwtable
define noundef i32 @_ZNK6icu_7715ChineseCalendar28handleGetMonthLengthWithLeapEiibR10UErrorCode(ptr noundef nonnull align 8 dereferenceable(193) %0, i32 noundef %1, i32 noundef %2, i1 noundef zeroext %3, ptr noundef nonnull align 4 dereferenceable(4) %4) local_unnamed_addr #0 align 2 {
  %6 = alloca %"struct.icu_77::ChineseCalendar::Setting", align 8
  call void @llvm.lifetime.start.p0(i64 32, ptr nonnull %6) #8
  %7 = load ptr, ptr %0, align 8, !tbaa !3
  %8 = getelementptr inbounds nuw i8, ptr %7, i64 456
  %9 = load ptr, ptr %8, align 8
  call void %9(ptr dead_on_unwind nonnull writable sret(%"struct.icu_77::ChineseCalendar::Setting") align 8 %6, ptr noundef nonnull align 8 dereferenceable(193) %0, ptr noundef nonnull align 4 dereferenceable(4) %4)
  %10 = load i32, ptr %4, align 4, !tbaa !21
  %11 = icmp slt i32 %10, 1
  br i1 %11, label %12, label %24

12:                                               ; preds = %5
  %13 = call noundef i64 @_ZNK6icu_7715ChineseCalendar31handleComputeMonthStartWithLeapEiibR10UErrorCode(ptr noundef nonnull align 8 dereferenceable(193) %0, i32 noundef %1, i32 noundef %2, i1 noundef zeroext %3, ptr noundef nonnull align 4 dereferenceable(4) %4)
  %14 = load i32, ptr %4, align 4, !tbaa !21
  %15 = icmp slt i32 %14, 1
  br i1 %15, label %16, label %24

16:                                               ; preds = %12
  %17 = trunc nsw i64 %13 to i32
  %18 = getelementptr inbounds nuw i8, ptr %6, i64 8
  %19 = load ptr, ptr %18, align 8, !tbaa !28
  %20 = add nsw i32 %17, -2440562
  %21 = sitofp i32 %20 to double
  %22 = call fastcc noundef i32 @_ZN6icu_7712_GLOBAL__N_111newMoonNearEPKNS_8TimeZoneEdaR10UErrorCode(ptr noundef %19, double noundef %21, i8 noundef signext 1, ptr noundef nonnull align 4 dereferenceable(4) %4)
  %reass.sub = sub i32 %22, %17
  %23 = add i32 %reass.sub, 2440587
  br label %24

24:                                               ; preds = %16, %12, %5
  %.0 = phi i32 [ 0, %5 ], [ %23, %16 ], [ 0, %12 ]
  call void @llvm.lifetime.end.p0(i64 32, ptr nonnull %6) #8
  ret i32 %.0
}